; ModuleID = '24/484.c'
source_filename = "24/484.c"
target datalayout = "e-m:e-p270:32:32-p271:32:32-p272:64:64-i64:64-f80:128-n8:16:32:64-S128"
target triple = "x86_64-pc-linux-gnu"

@.str = private unnamed_addr constant [4 x i8] c"%s\0A\00", align 1

; Function Attrs: noinline nounwind uwtable
define dso_local void @main() #0 {
  %1 = alloca [200 x i8], align 16
  %2 = alloca [200 x i8], align 16
  %3 = alloca [200 x i8], align 16
  %4 = alloca i32, align 4
  %5 = alloca i32, align 4
  %6 = alloca i32, align 4
  %7 = alloca i32, align 4
  %8 = alloca i32, align 4
  %9 = alloca i32, align 4
  %10 = alloca i32, align 4
  %11 = alloca i32, align 4
  %12 = alloca i32, align 4
  store i32 1, i32* %4, align 4
  store i32 1, i32* %5, align 4
  store i32 0, i32* %6, align 4
  store i32 0, i32* %7, align 4
  store i32 0, i32* %8, align 4
  store i32 0, i32* %9, align 4
  store i32 100, i32* %10, align 4
  %13 = getelementptr inbounds [200 x i8], [200 x i8]* %1, i64 0, i64 0
  %14 = call i32 (i8*, ...) bitcast (i32 (...)* @gets to i32 (i8*, ...)*)(i8* %13)
  store i32 0, i32* %11, align 4
  br label %15

15:                                               ; preds = %211, %0
  %16 = load i32, i32* %11, align 4
  %17 = sext i32 %16 to i64
  %18 = getelementptr inbounds [200 x i8], [200 x i8]* %1, i64 0, i64 %17
  %19 = load i8, i8* %18, align 1
  %20 = sext i8 %19 to i32
  %21 = icmp eq i32 %20, 0
  br i1 %21, label %22, label %117

22:                                               ; preds = %15
  %23 = load i32, i32* %4, align 4
  %24 = load i32, i32* %6, align 4
  %25 = icmp sgt i32 %23, %24
  br i1 %25, label %26, label %51

26:                                               ; preds = %22
  %27 = load i32, i32* %7, align 4
  store i32 %27, i32* %12, align 4
  br label %28

28:                                               ; preds = %43, %26
  %29 = load i32, i32* %12, align 4
  %30 = load i32, i32* %11, align 4
  %31 = sub nsw i32 %30, 1
  %32 = icmp sle i32 %29, %31
  br i1 %32, label %33, label %46

33:                                               ; preds = %28
  %34 = load i32, i32* %12, align 4
  %35 = sext i32 %34 to i64
  %36 = getelementptr inbounds [200 x i8], [200 x i8]* %1, i64 0, i64 %35
  %37 = load i8, i8* %36, align 1
  %38 = load i32, i32* %9, align 4
  %39 = sext i32 %38 to i64
  %40 = getelementptr inbounds [200 x i8], [200 x i8]* %3, i64 0, i64 %39
  store i8 %37, i8* %40, align 1
  %41 = load i32, i32* %9, align 4
  %42 = add nsw i32 %41, 1
  store i32 %42, i32* %9, align 4
  br label %43

43:                                               ; preds = %33
  %44 = load i32, i32* %12, align 4
  %45 = add nsw i32 %44, 1
  store i32 %45, i32* %12, align 4
  br label %28

46:                                               ; preds = %28
  %47 = load i32, i32* %9, align 4
  %48 = sext i32 %47 to i64
  %49 = getelementptr inbounds [200 x i8], [200 x i8]* %3, i64 0, i64 %48
  store i8 0, i8* %49, align 1
  %50 = load i32, i32* %4, align 4
  store i32 %50, i32* %6, align 4
  store i32 0, i32* %9, align 4
  br label %51

51:                                               ; preds = %46, %22
  %52 = load i32, i32* %5, align 4
  %53 = load i32, i32* %10, align 4
  %54 = icmp slt i32 %52, %53
  br i1 %54, label %55, label %112

55:                                               ; preds = %51
  %56 = load i32, i32* %11, align 4
  %57 = sub nsw i32 %56, 1
  %58 = sext i32 %57 to i64
  %59 = getelementptr inbounds [200 x i8], [200 x i8]* %1, i64 0, i64 %58
  %60 = load i8, i8* %59, align 1
  %61 = sext i8 %60 to i32
  %62 = icmp sle i32 %61, 90
  br i1 %62, label %63, label %71

63:                                               ; preds = %55
  %64 = load i32, i32* %11, align 4
  %65 = sub nsw i32 %64, 1
  %66 = sext i32 %65 to i64
  %67 = getelementptr inbounds [200 x i8], [200 x i8]* %1, i64 0, i64 %66
  %68 = load i8, i8* %67, align 1
  %69 = sext i8 %68 to i32
  %70 = icmp sge i32 %69, 65
  br i1 %70, label %87, label %71

71:                                               ; preds = %63, %55
  %72 = load i32, i32* %11, align 4
  %73 = sub nsw i32 %72, 1
  %74 = sext i32 %73 to i64
  %75 = getelementptr inbounds [200 x i8], [200 x i8]* %1, i64 0, i64 %74
  %76 = load i8, i8* %75, align 1
  %77 = sext i8 %76 to i32
  %78 = icmp sle i32 %77, 122
  br i1 %78, label %79, label %112

79:                                               ; preds = %71
  %80 = load i32, i32* %11, align 4
  %81 = sub nsw i32 %80, 1
  %82 = sext i32 %81 to i64
  %83 = getelementptr inbounds [200 x i8], [200 x i8]* %1, i64 0, i64 %82
  %84 = load i8, i8* %83, align 1
  %85 = sext i8 %84 to i32
  %86 = icmp sge i32 %85, 97
  br i1 %86, label %87, label %112

87:                                               ; preds = %79, %63
  %88 = load i32, i32* %8, align 4
  store i32 %88, i32* %12, align 4
  br label %89

89:                                               ; preds = %104, %87
  %90 = load i32, i32* %12, align 4
  %91 = load i32, i32* %11, align 4
  %92 = sub nsw i32 %91, 1
  %93 = icmp sle i32 %90, %92
  br i1 %93, label %94, label %107

94:                                               ; preds = %89
  %95 = load i32, i32* %12, align 4
  %96 = sext i32 %95 to i64
  %97 = getelementptr inbounds [200 x i8], [200 x i8]* %1, i64 0, i64 %96
  %98 = load i8, i8* %97, align 1
  %99 = load i32, i32* %9, align 4
  %100 = sext i32 %99 to i64
  %101 = getelementptr inbounds [200 x i8], [200 x i8]* %2, i64 0, i64 %100
  store i8 %98, i8* %101, align 1
  %102 = load i32, i32* %9, align 4
  %103 = add nsw i32 %102, 1
  store i32 %103, i32* %9, align 4
  br label %104

104:                                              ; preds = %94
  %105 = load i32, i32* %12, align 4
  %106 = add nsw i32 %105, 1
  store i32 %106, i32* %12, align 4
  br label %89

107:                                              ; preds = %89
  %108 = load i32, i32* %9, align 4
  %109 = sext i32 %108 to i64
  %110 = getelementptr inbounds [200 x i8], [200 x i8]* %2, i64 0, i64 %109
  store i8 0, i8* %110, align 1
  %111 = load i32, i32* %5, align 4
  store i32 %111, i32* %10, align 4
  store i32 0, i32* %9, align 4
  br label %112

112:                                              ; preds = %107, %79, %71, %51
  store i32 0, i32* %4, align 4
  store i32 0, i32* %5, align 4
  %113 = load i32, i32* %11, align 4
  %114 = add nsw i32 %113, 1
  store i32 %114, i32* %7, align 4
  %115 = load i32, i32* %11, align 4
  %116 = add nsw i32 %115, 1
  store i32 %116, i32* %8, align 4
  br label %218

117:                                              ; preds = %15
  %118 = load i32, i32* %11, align 4
  %119 = sext i32 %118 to i64
  %120 = getelementptr inbounds [200 x i8], [200 x i8]* %1, i64 0, i64 %119
  %121 = load i8, i8* %120, align 1
  %122 = sext i8 %121 to i32
  %123 = icmp sle i32 %122, 90
  br i1 %123, label %124, label %131

124:                                              ; preds = %117
  %125 = load i32, i32* %11, align 4
  %126 = sext i32 %125 to i64
  %127 = getelementptr inbounds [200 x i8], [200 x i8]* %1, i64 0, i64 %126
  %128 = load i8, i8* %127, align 1
  %129 = sext i8 %128 to i32
  %130 = icmp sge i32 %129, 65
  br i1 %130, label %145, label %131

131:                                              ; preds = %124, %117
  %132 = load i32, i32* %11, align 4
  %133 = sext i32 %132 to i64
  %134 = getelementptr inbounds [200 x i8], [200 x i8]* %1, i64 0, i64 %133
  %135 = load i8, i8* %134, align 1
  %136 = sext i8 %135 to i32
  %137 = icmp sle i32 %136, 122
  br i1 %137, label %138, label %146

138:                                              ; preds = %131
  %139 = load i32, i32* %11, align 4
  %140 = sext i32 %139 to i64
  %141 = getelementptr inbounds [200 x i8], [200 x i8]* %1, i64 0, i64 %140
  %142 = load i8, i8* %141, align 1
  %143 = sext i8 %142 to i32
  %144 = icmp sge i32 %143, 97
  br i1 %144, label %145, label %146

145:                                              ; preds = %138, %124
  br label %209

146:                                              ; preds = %138, %131
  %147 = load i32, i32* %4, align 4
  %148 = load i32, i32* %6, align 4
  %149 = icmp sgt i32 %147, %148
  br i1 %149, label %150, label %175

150:                                              ; preds = %146
  %151 = load i32, i32* %7, align 4
  store i32 %151, i32* %12, align 4
  br label %152

152:                                              ; preds = %167, %150
  %153 = load i32, i32* %12, align 4
  %154 = load i32, i32* %11, align 4
  %155 = sub nsw i32 %154, 1
  %156 = icmp sle i32 %153, %155
  br i1 %156, label %157, label %170

157:                                              ; preds = %152
  %158 = load i32, i32* %12, align 4
  %159 = sext i32 %158 to i64
  %160 = getelementptr inbounds [200 x i8], [200 x i8]* %1, i64 0, i64 %159
  %161 = load i8, i8* %160, align 1
  %162 = load i32, i32* %9, align 4
  %163 = sext i32 %162 to i64
  %164 = getelementptr inbounds [200 x i8], [200 x i8]* %3, i64 0, i64 %163
  store i8 %161, i8* %164, align 1
  %165 = load i32, i32* %9, align 4
  %166 = add nsw i32 %165, 1
  store i32 %166, i32* %9, align 4
  br label %167

167:                                              ; preds = %157
  %168 = load i32, i32* %12, align 4
  %169 = add nsw i32 %168, 1
  store i32 %169, i32* %12, align 4
  br label %152

170:                                              ; preds = %152
  %171 = load i32, i32* %9, align 4
  %172 = sext i32 %171 to i64
  %173 = getelementptr inbounds [200 x i8], [200 x i8]* %3, i64 0, i64 %172
  store i8 0, i8* %173, align 1
  %174 = load i32, i32* %4, align 4
  store i32 %174, i32* %6, align 4
  store i32 0, i32* %9, align 4
  br label %175

175:                                              ; preds = %170, %146
  %176 = load i32, i32* %5, align 4
  %177 = load i32, i32* %10, align 4
  %178 = icmp slt i32 %176, %177
  br i1 %178, label %179, label %204

179:                                              ; preds = %175
  %180 = load i32, i32* %8, align 4
  store i32 %180, i32* %12, align 4
  br label %181

181:                                              ; preds = %196, %179
  %182 = load i32, i32* %12, align 4
  %183 = load i32, i32* %11, align 4
  %184 = sub nsw i32 %183, 1
  %185 = icmp sle i32 %182, %184
  br i1 %185, label %186, label %199

186:                                              ; preds = %181
  %187 = load i32, i32* %12, align 4
  %188 = sext i32 %187 to i64
  %189 = getelementptr inbounds [200 x i8], [200 x i8]* %1, i64 0, i64 %188
  %190 = load i8, i8* %189, align 1
  %191 = load i32, i32* %9, align 4
  %192 = sext i32 %191 to i64
  %193 = getelementptr inbounds [200 x i8], [200 x i8]* %2, i64 0, i64 %192
  store i8 %190, i8* %193, align 1
  %194 = load i32, i32* %9, align 4
  %195 = add nsw i32 %194, 1
  store i32 %195, i32* %9, align 4
  br label %196

196:                                              ; preds = %186
  %197 = load i32, i32* %12, align 4
  %198 = add nsw i32 %197, 1
  store i32 %198, i32* %12, align 4
  br label %181

199:                                              ; preds = %181
  %200 = load i32, i32* %9, align 4
  %201 = sext i32 %200 to i64
  %202 = getelementptr inbounds [200 x i8], [200 x i8]* %2, i64 0, i64 %201
  store i8 0, i8* %202, align 1
  %203 = load i32, i32* %5, align 4
  store i32 %203, i32* %10, align 4
  store i32 0, i32* %9, align 4
  br label %204

204:                                              ; preds = %199, %175
  store i32 0, i32* %4, align 4
  store i32 0, i32* %5, align 4
  %205 = load i32, i32* %11, align 4
  %206 = add nsw i32 %205, 1
  store i32 %206, i32* %7, align 4
  %207 = load i32, i32* %11, align 4
  %208 = add nsw i32 %207, 1
  store i32 %208, i32* %8, align 4
  br label %209

209:                                              ; preds = %204, %145
  br label %210

210:                                              ; preds = %209
  br label %211

211:                                              ; preds = %210
  %212 = load i32, i32* %11, align 4
  %213 = add nsw i32 %212, 1
  store i32 %213, i32* %11, align 4
  %214 = load i32, i32* %4, align 4
  %215 = add nsw i32 %214, 1
  store i32 %215, i32* %4, align 4
  %216 = load i32, i32* %5, align 4
  %217 = add nsw i32 %216, 1
  store i32 %217, i32* %5, align 4
  br label %15

218:                                              ; preds = %112
  %219 = getelementptr inbounds [200 x i8], [200 x i8]* %3, i64 0, i64 0
  %220 = call i32 (i8*, ...) @printf(i8* getelementptr inbounds ([4 x i8], [4 x i8]* @.str, i64 0, i64 0), i8* %219)
  %221 = getelementptr inbounds [200 x i8], [200 x i8]* %2, i64 0, i64 0
  %222 = call i32 (i8*, ...) @printf(i8* getelementptr inbounds ([4 x i8], [4 x i8]* @.str, i64 0, i64 0), i8* %221)
  ret void
}

declare dso_local i32 @gets(...) #1

declare dso_local i32 @printf(i8*, ...) #1


!llvm.module.flags = !{!0}
!llvm.ident = !{!1}

!0 = !{i32 1, !"wchar_size", i32 4}
!1 = !{!"clang version 10.0.0-4ubuntu1 "}
